; Function Attrs: mustprogress uwtable
define noundef zeroext i1 @_ZNK32pxrInternal_v0_24__pxrReserved__9ArchRegex5MatchERKNSt7__cxx1112basic_stringIcSt11char_traitsIcESaIcEEE(ptr nocapture noundef nonnull readonly align 8 dereferenceable(56) %0, ptr noundef nonnull align 8 dereferenceable(32) %1) local_unnamed_addr #0 align 2 {
  %3 = getelementptr inbounds nuw i8, ptr %0, i64 40
  %4 = load ptr, ptr %3, align 8
  %.not = icmp eq ptr %4, null
  br i1 %.not, label %9, label %5

5:                                                ; preds = %2
  %6 = tail call noundef ptr @_ZNKSt7__cxx1112basic_stringIcSt11char_traitsIcESaIcEE5c_strEv(ptr noundef nonnull align 8 dereferenceable(32) %1) #13
  %7 = tail call i32 @regexec(ptr noundef nonnull %4, ptr noundef %6, i64 noundef 0, ptr noundef null, i32 noundef 0)
  %8 = icmp ne i32 %7, 1
  br label %9

9:                                                ; preds = %5, %2
  %10 = phi i1 [ false, %2 ], [ %8, %5 ]
  ret i1 %10
}